(dp0
I0
V\u4e00
p1
sI1
V\u4e01
p2
sI2
V\u4e03
p3
sI3
V\u4e07
p4
sI4
V\u4e08
p5
sI5
V\u4e09
p6
sI6
V\u4e0a
p7
sI7
V\u4e0b
p8
sI8
V\u4e0d
p9
sI9
V\u4e0e
p10
sI10
V\u4e11
p11
sI11
V\u4e13
p12
sI12
V\u4e14
p13
sI13
V\u4e16
p14
sI14
V\u4e18
p15
sI15
V\u4e19
p16
sI16
V\u4e1a
p17
sI17
V\u4e1b
p18
sI18
V\u4e1c
p19
sI19
V\u4e1d
p20
sI20
V\u4e22
p21
sI21
V\u4e24
p22
sI22
V\u4e25
p23
sI23
V\u4e27
p24
sI24
V\u4e2a
p25
sI25
V\u4e2b
p26
sI26
V\u4e2d
p27
sI27
V\u4e30
p28
sI28
V\u4e32
p29
sI29
V\u4e34
p30
sI30
V\u4e38
p31
sI31
V\u4e39
p32
sI32
V\u4e3a
p33
sI33
V\u4e3b
p34
sI34
V\u4e3d
p35
sI35
V\u4e3e
p36
sI36
V\u4e43
p37
sI37
V\u4e45
p38
sI38
V\u4e48
p39
sI39
V\u4e49
p40
sI40
V\u4e4b
p41
sI41
V\u4e4c
p42
sI42
V\u4e4d
p43
sI43
V\u4e4e
p44
sI44
V\u4e4f
p45
sI45
V\u4e50
p46
sI46
V\u4e52
p47
sI47
V\u4e53
p48
sI48
V\u4e54
p49
sI49
V\u4e56
p50
sI50
V\u4e58
p51
sI51
V\u4e59
p52
sI52
V\u4e5d
p53
sI53
V\u4e5e
p54
sI54
V\u4e5f
p55
sI55
V\u4e60
p56
sI56
V\u4e61
p57
sI57
V\u4e66
p58
sI58
V\u4e70
p59
sI59
V\u4e71
p60
sI60
V\u4e73
p61
sI61
V\u4e7e
p62
sI62
V\u4e86
p63
sI63
V\u4e88
p64
sI64
V\u4e89
p65
sI65
V\u4e8b
p66
sI66
V\u4e8c
p67
sI67
V\u4e8e
p68
sI68
V\u4e8f
p69
sI69
V\u4e91
p70
sI70
V\u4e92
p71
sI71
V\u4e94
p72
sI72
V\u4e95
p73
sI73
V\u4e9a
p74
sI74
V\u4e9b
p75
sI75
V\u4ea1
p76
sI76
V\u4ea2
p77
sI77
V\u4ea4
p78
sI78
V\u4ea5
p79
sI79
V\u4ea6
p80
sI80
V\u4ea7
p81
sI81
V\u4ea8
p82
sI82
V\u4ea9
p83
sI83
V\u4eab
p84
sI84
V\u4eac
p85
sI85
V\u4ead
p86
sI86
V\u4eae
p87
sI87
V\u4eb2
p88
sI88
V\u4eba
p89
sI89
V\u4ebf
p90
sI90
V\u4ec0
p91
sI91
V\u4ec1
p92
sI92
V\u4ec5
p93
sI93
V\u4ec6
p94
sI94
V\u4ec7
p95
sI95
V\u4eca
p96
sI96
V\u4ecb
p97
sI97
V\u4ecd
p98
sI98
V\u4ece
p99
sI99
V\u4ed1
p100
sI100
V\u4ed3
p101
sI101
V\u4ed4
p102
sI102
V\u4ed5
p103
sI103
V\u4ed6
p104
sI104
V\u4ed7
p105
sI105
V\u4ed8
p106
sI106
V\u4ed9
p107
sI107
V\u4edf
p108
sI108
V\u4ee3
p109
sI109
V\u4ee4
p110
sI110
V\u4ee5
p111
sI111
V\u4eea
p112
sI112
V\u4eec
p113
sI113
V\u4ef0
p114
sI114
V\u4ef2
p115
sI115
V\u4ef6
p116
sI116
V\u4ef7
p117
sI117
V\u4efb
p118
sI118
V\u4efd
p119
sI119
V\u4eff
p120
sI120
V\u4f01
p121
sI121
V\u4f0a
p122
sI122
V\u4f0d
p123
sI123
V\u4f0e
p124
sI124
V\u4f0f
p125
sI125
V\u4f10
p126
sI126
V\u4f11
p127
sI127
V\u4f17
p128
sI128
V\u4f18
p129
sI129
V\u4f19
p130
sI130
V\u4f1a
p131
sI131
V\u4f1e
p132
sI132
V\u4f1f
p133
sI133
V\u4f20
p134
sI134
V\u4f24
p135
sI135
V\u4f26
p136
sI136
V\u4f2a
p137
sI137
V\u4f2f
p138
sI138
V\u4f30
p139
sI139
V\u4f34
p140
sI140
V\u4f36
p141
sI141
V\u4f38
p142
sI142
V\u4f3a
p143
sI143
V\u4f3c
p144
sI144
V\u4f43
p145
sI145
V\u4f46
p146
sI146
V\u4f4d
p147
sI147
V\u4f4e
p148
sI148
V\u4f4f
p149
sI149
V\u4f50
p150
sI150
V\u4f51
p151
sI151
V\u4f53
p152
sI152
V\u4f55
p153
sI153
V\u4f59
p154
sI154
V\u4f5b
p155
sI155
V\u4f5c
p156
sI156
V\u4f60
p157
sI157
V\u4f63
p158
sI158
V\u4f69
p159
sI159
V\u4f6c
p160
sI160
V\u4f6f
p161
sI161
V\u4f70
p162
sI162
V\u4f73
p163
sI163
V\u4f7f
p164
sI164
V\u4f84
p165
sI165
V\u4f88
p166
sI166
V\u4f8b
p167
sI167
V\u4f8d
p168
sI168
V\u4f97
p169
sI169
V\u4f9b
p170
sI170
V\u4f9d
p171
sI171
V\u4fa0
p172
sI172
V\u4fa3
p173
sI173
V\u4fa5
p174
sI174
V\u4fa6
p175
sI175
V\u4fa7
p176
sI176
V\u4fa8
p177
sI177
V\u4fa9
p178
sI178
V\u4fae
p179
sI179
V\u4faf
p180
sI180
V\u4fb5
p181
sI181
V\u4fbf
p182
sI182
V\u4fc3
p183
sI183
V\u4fc4
p184
sI184
V\u4fca
p185
sI185
V\u4fcf
p186
sI186
V\u4fd0
p187
sI187
V\u4fd7
p188
sI188
V\u4fd8
p189
sI189
V\u4fdd
p190
sI190
V\u4fde
p191
sI191
V\u4fe1
p192
sI192
V\u4fe9
p193
sI193
V\u4fed
p194
sI194
V\u4fee
p195
sI195
V\u4fef
p196
sI196
V\u4ff1
p197
sI197
V\u4ffa
p198
sI198
V\u500d
p199
sI199
V\u5012
p200
sI200
V\u5014
p201
sI201
V\u5018
p202
sI202
V\u5019
p203
sI203
V\u501a
p204
sI204
V\u501f
p205
sI205
V\u5021
p206
sI206
V\u5026
p207
sI207
V\u502a
p208
sI208
V\u503a
p209
sI209
V\u503c
p210
sI210
V\u503e
p211
sI211
V\u5047
p212
sI212
V\u504f
p213
sI213
V\u505a
p214
sI214
V\u505c
p215
sI215
V\u5065
p216
sI216
V\u5076
p217
sI217
V\u5077
p218
sI218
V\u507f
p219
sI219
V\u5080
p220
sI220
V\u5085
p221
sI221
V\u5088
p222
sI222
V\u508d
p223
sI223
V\u50a3
p224
sI224
V\u50a8
p225
sI225
V\u50ac
p226
sI226
V\u50b2
p227
sI227
V\u50bb
p228
sI228
V\u50cf
p229
sI229
V\u50da
p230
sI230
V\u50e7
p231
sI231
V\u50f3
p232
sI232
V\u50f5
p233
sI233
V\u50fb
p234
sI234
V\u5112
p235
sI235
V\u5121
p236
sI236
V\u513f
p237
sI237
V\u5141
p238
sI238
V\u5143
p239
sI239
V\u5144
p240
sI240
V\u5145
p241
sI241
V\u5146
p242
sI242
V\u5148
p243
sI243
V\u5149
p244
sI244
V\u514b
p245
sI245
V\u514d
p246
sI246
V\u5151
p247
sI247
V\u5154
p248
sI248
V\u515a
p249
sI249
V\u515c
p250
sI250
V\u5162
p251
sI251
V\u5165
p252
sI252
V\u5168
p253
sI253
V\u516b
p254
sI254
V\u516c
p255
sI255
V\u516d
p256
sI256
V\u5170
p257
sI257
V\u5171
p258
sI258
V\u5173
p259
sI259
V\u5174
p260
sI260
V\u5175
p261
sI261
V\u5176
p262
sI262
V\u5177
p263
sI263
V\u5178
p264
sI264
V\u5179
p265
sI265
V\u517b
p266
sI266
V\u517c
p267
sI267
V\u517d
p268
sI268
V\u5180
p269
sI269
V\u5185
p270
sI270
V\u5188
p271
sI271
V\u5189
p272
sI272
V\u518c
p273
sI273
V\u518d
p274
sI274
V\u5192
p275
sI275
V\u5195
p276
sI276
V\u5197
p277
sI277
V\u5199
p278
sI278
V\u519b
p279
sI279
V\u519c
p280
sI280
V\u51a0
p281
sI281
V\u51a4
p282
sI282
V\u51ac
p283
sI283
V\u51af
p284
sI284
V\u51b0
p285
sI285
V\u51b2
p286
sI286
V\u51b3
p287
sI287
V\u51b5
p288
sI288
V\u51b6
p289
sI289
V\u51b7
p290
sI290
V\u51bb
p291
sI291
V\u51c0
p292
sI292
V\u51c4
p293
sI293
V\u51c6
p294
sI294
V\u51c9
p295
sI295
V\u51cb
p296
sI296
V\u51cc
p297
sI297
V\u51cf
p298
sI298
V\u51d1
p299
sI299
V\u51db
p300
sI300
V\u51dd
p301
sI301
V\u51e0
p302
sI302
V\u51e1
p303
sI303
V\u51e4
p304
sI304
V\u51ed
p305
sI305
V\u51ef
p306
sI306
V\u51f0
p307
sI307
V\u51f3
p308
sI308
V\u51f6
p309
sI309
V\u51f8
p310
sI310
V\u51f9
p311
sI311
V\u51fa
p312
sI312
V\u51fb
p313
sI313
V\u51fd
p314
sI314
V\u51ff
p315
sI315
V\u5200
p316
sI316
V\u5201
p317
sI317
V\u5203
p318
sI318
V\u5206
p319
sI319
V\u5207
p320
sI320
V\u520a
p321
sI321
V\u5211
p322
sI322
V\u5212
p323
sI323
V\u5217
p324
sI324
V\u5218
p325
sI325
V\u5219
p326
sI326
V\u521a
p327
sI327
V\u521b
p328
sI328
V\u521d
p329
sI329
V\u5220
p330
sI330
V\u5224
p331
sI331
V\u5228
p332
sI332
V\u5229
p333
sI333
V\u522b
p334
sI334
V\u522e
p335
sI335
V\u5230
p336
sI336
V\u5236
p337
sI337
V\u5237
p338
sI338
V\u5238
p339
sI339
V\u5239
p340
sI340
V\u523a
p341
sI341
V\u523b
p342
sI342
V\u523d
p343
sI343
V\u5241
p344
sI344
V\u5242
p345
sI345
V\u5243
p346
sI346
V\u524a
p347
sI347
V\u524d
p348
sI348
V\u5250
p349
sI349
V\u5251
p350
sI350
V\u5254
p351
sI351
V\u5256
p352
sI352
V\u5265
p353
sI353
V\u5267
p354
sI354
V\u5269
p355
sI355
V\u526a
p356
sI356
V\u526f
p357
sI357
V\u5272
p358
sI358
V\u527f
p359
sI359
V\u5288
p360
sI360
V\u529b
p361
sI361
V\u529d
p362
sI362
V\u529e
p363
sI363
V\u529f
p364
sI364
V\u52a0
p365
sI365
V\u52a1
p366
sI366
V\u52a3
p367
sI367
V\u52a8
p368
sI368
V\u52a9
p369
sI369
V\u52aa
p370
sI370
V\u52ab
p371
sI371
V\u52b1
p372
sI372
V\u52b2
p373
sI373
V\u52b3
p374
sI374
V\u52bf
p375
sI375
V\u52c3
p376
sI376
V\u52c7
p377
sI377
V\u52c9
p378
sI378
V\u52cb
p379
sI379
V\u52d2
p380
sI380
V\u52d8
p381
sI381
V\u52df
p382
sI382
V\u52e4
p383
sI383
V\u52fa
p384
sI384
V\u52fe
p385
sI385
V\u52ff
p386
sI386
V\u5300
p387
sI387
V\u5305
p388
sI388
V\u5306
p389
sI389
V\u5308
p390
sI390
V\u5316
p391
sI391
V\u5317
p392
sI392
V\u5319
p393
sI393
V\u531d
p394
sI394
V\u5320
p395
sI395
V\u5321
p396
sI396
V\u5323
p397
sI397
V\u532a
p398
sI398
V\u5339
p399
sI399
V\u533a
p400
sI400
V\u533b
p401
sI401
V\u533f
p402
sI402
V\u5341
p403
sI403
V\u5343
p404
sI404
V\u5347
p405
sI405
V\u5348
p406
sI406
V\u5349
p407
sI407
V\u534a
p408
sI408
V\u534e
p409
sI409
V\u534f
p410
sI410
V\u5351
p411
sI411
V\u5352
p412
sI412
V\u5353
p413
sI413
V\u5355
p414
sI414
V\u5356
p415
sI415
V\u5357
p416
sI416
V\u535a
p417
sI417
V\u535c
p418
sI418
V\u535e
p419
sI419
V\u5360
p420
sI420
V\u5361
p421
sI421
V\u5362
p422
sI422
V\u5364
p423
sI423
V\u5367
p424
sI424
V\u536b
p425
sI425
V\u536f
p426
sI426
V\u5370
p427
sI427
V\u5371
p428
sI428
V\u5373
p429
sI429
V\u5374
p430
sI430
V\u5375
p431
sI431
V\u5377
p432
sI432
V\u5378
p433
sI433
V\u537f
p434
sI434
V\u5382
p435
sI435
V\u5384
p436
sI436
V\u5385
p437
sI437
V\u5386
p438
sI438
V\u5389
p439
sI439
V\u538b
p440
sI440
V\u538c
p441
sI441
V\u5395
p442
sI442
V\u5398
p443
sI443
V\u539a
p444
sI444
V\u539f
p445
sI445
V\u53a2
p446
sI446
V\u53a6
p447
sI447
V\u53a8
p448
sI448
V\u53a9
p449
sI449
V\u53bb
p450
sI450
V\u53bf
p451
sI451
V\u53c1
p452
sI452
V\u53c2
p453
sI453
V\u53c8
p454
sI454
V\u53c9
p455
sI455
V\u53ca
p456
sI456
V\u53cb
p457
sI457
V\u53cc
p458
sI458
V\u53cd
p459
sI459
V\u53d1
p460
sI460
V\u53d4
p461
sI461
V\u53d6
p462
sI462
V\u53d7
p463
sI463
V\u53d8
p464
sI464
V\u53d9
p465
sI465
V\u53db
p466
sI466
V\u53e0
p467
sI467
V\u53e3
p468
sI468
V\u53e4
p469
sI469
V\u53e5
p470
sI470
V\u53e6
p471
sI471
V\u53ea
p472
sI472
V\u53eb
p473
sI473
V\u53ec
p474
sI474
V\u53ed
p475
sI475
V\u53ee
p476
sI476
V\u53ef
p477
sI477
V\u53f0
p478
sI478
V\u53f2
p479
sI479
V\u53f3
p480
sI480
V\u53f6
p481
sI481
V\u53f7
p482
sI482
V\u53f8
p483
sI483
V\u53f9
p484
sI484
V\u53fc
p485
sI485
V\u5401
p486
sI486
V\u5403
p487
sI487
V\u5404
p488
sI488
V\u5408
p489
sI489
V\u5409
p490
sI490
V\u540a
p491
sI491
V\u540c
p492
sI492
V\u540d
p493
sI493
V\u540e
p494
sI494
V\u540f
p495
sI495
V\u5410
p496
sI496
V\u5411
p497
sI497
V\u5413
p498
sI498
V\u5415
p499
sI499
V\u5417
p500
sI500
V\u541b
p501
sI501
V\u541d
p502
sI502
V\u541e
p503
sI503
V\u541f
p504
sI504
V\u5420
p505
sI505
V\u5426
p506
sI506
V\u5427
p507
sI507
V\u5428
p508
sI508
V\u5429
p509
sI509
V\u542b
p510
sI510
V\u542c
p511
sI511
V\u542d
p512
sI512
V\u542e
p513
sI513
V\u542f
p514
sI514
V\u5431
p515
sI515
V\u5434
p516
sI516
V\u5435
p517
sI517
V\u5438
p518
sI518
V\u5439
p519
sI519
V\u543b
p520
sI520
V\u543c
p521
sI521
V\u543e
p522
sI522
V\u5440
p523
sI523
V\u5446
p524
sI524
V\u5448
p525
sI525
V\u544a
p526
sI526
V\u5450
p527
sI527
V\u5455
p528
sI528
V\u5458
p529
sI529
V\u545b
p530
sI530
V\u545c
p531
sI531
V\u5462
p532
sI532
V\u5468
p533
sI533
V\u5473
p534
sI534
V\u5475
p535
sI535
V\u5478
p536
sI536
V\u547b
p537
sI537
V\u547c
p538
sI538
V\u547d
p539
sI539
V\u5480
p540
sI540
V\u5486
p541
sI541
V\u548b
p542
sI542
V\u548c
p543
sI543
V\u548e
p544
sI544
V\u548f
p545
sI545
V\u5490
p546
sI546
V\u5492
p547
sI547
V\u5495
p548
sI548
V\u5496
p549
sI549
V\u5499
p550
sI550
V\u54a8
p551
sI551
V\u54ac
p552
sI552
V\u54af
p553
sI553
V\u54b1
p554
sI554
V\u54b3
p555
sI555
V\u54b8
p556
sI556
V\u54bd
p557
sI557
V\u54c0
p558
sI558
V\u54c1
p559
sI559
V\u54c4
p560
sI560
V\u54c6
p561
sI561
V\u54c7
p562
sI562
V\u54c8
p563
sI563
V\u54c9
p564
sI564
V\u54cd
p565
sI565
V\u54ce
p566
sI566
V\u54d1
p567
sI567
V\u54d7
p568
sI568
V\u54df
p569
sI569
V\u54e5
p570
sI570
V\u54e6
p571
sI571
V\u54e8
p572
sI572
V\u54e9
p573
sI573
V\u54ea
p574
sI574
V\u54ed
p575
sI575
V\u54ee
p576
sI576
V\u54f2
p577
sI577
V\u54fa
p578
sI578
V\u54fc
p579
sI579
V\u5501
p580
sI580
V\u5506
p581
sI581
V\u5507
p582
sI582
V\u5509
p583
sI583
V\u5510
p584
sI584
V\u5524
p585
sI585
V\u552c
p586
sI586
V\u552e
p587
sI587
V\u552f
p588
sI588
V\u5531
p589
sI589
V\u553e
p590
sI590
V\u5543
p591
sI591
V\u5544
p592
sI592
V\u5546
p593
sI593
V\u554a
p594
sI594
V\u5561
p595
sI595
V\u5564
p596
sI596
V\u5565
p597
sI597
V\u5566
p598
sI598
V\u556a
p599
sI599
V\u556e
p600
sI600
V\u5578
p601
sI601
V\u557c
p602
sI602
V\u5580
p603
sI603
V\u5582
p604
sI604
V\u5584
p605
sI605
V\u5587
p606
sI606
V\u5589
p607
sI607
V\u558a
p608
sI608
V\u5598
p609
sI609
V\u559c
p610
sI610
V\u559d
p611
sI611
V\u55a7
p612
sI612
V\u55b3
p613
sI613
V\u55b7
p614
sI614
V\u55bb
p615
sI615
V\u55c5
p616
sI616
V\u55d3
p617
sI617
V\u55dc
p618
sI618
V\u55e1
p619
sI619
V\u55e3
p620
sI620
V\u55fd
p621
sI621
V\u5609
p622
sI622
V\u560e
p623
sI623
V\u5618
p624
sI624
V\u561b
p625
sI625
V\u5631
p626
sI626
V\u5632
p627
sI627
V\u5634
p628
sI628
V\u5636
p629
sI629
V\u563b
p630
sI630
V\u563f
p631
sI631
V\u564e
p632
sI632
V\u5668
p633
sI633
V\u566a
p634
sI634
V\u566c
p635
sI635
V\u5676
p636
sI636
V\u568e
p637
sI637
V\u568f
p638
sI638
V\u56a3
p639
sI639
V\u56b7
p640
sI640
V\u56bc
p641
sI641
V\u56ca
p642
sI642
V\u56da
p643
sI643
V\u56db
p644
sI644
V\u56de
p645
sI645
V\u56e0
p646
sI646
V\u56e2
p647
sI647
V\u56e4
p648
sI648
V\u56ed
p649
sI649
V\u56f0
p650
sI650
V\u56f1
p651
sI651
V\u56f4
p652
sI652
V\u56fa
p653
sI653
V\u56fd
p654
sI654
V\u56fe
p655
sI655
V\u5703
p656
sI656
V\u5706
p657
sI657
V\u5708
p658
sI658
V\u571f
p659
sI659
V\u5723
p660
sI660
V\u5728
p661
sI661
V\u572d
p662
sI662
V\u5730
p663
sI663
V\u573a
p664
sI664
V\u573e
p665
sI665
V\u5740
p666
sI666
V\u5747
p667
sI667
V\u574a
p668
sI668
V\u574d
p669
sI669
V\u574e
p670
sI670
V\u574f
p671
sI671
V\u5750
p672
sI672
V\u5751
p673
sI673
V\u5757
p674
sI674
V\u575a
p675
sI675
V\u575b
p676
sI676
V\u575d
p677
sI677
V\u575e
p678
sI678
V\u575f
p679
sI679
V\u5760
p680
sI680
V\u5761
p681
sI681
V\u5764
p682
sI682
V\u5766
p683
sI683
V\u576a
p684
sI684
V\u576f
p685
sI685
V\u5777
p686
sI686
V\u5782
p687
sI687
V\u5783
p688
sI688
V\u5784
p689
sI689
V\u578b
p690
sI690
V\u5792
p691
sI691
V\u579b
p692
sI692
V\u57a2
p693
sI693
V\u57a3
p694
sI694
V\u57a6
p695
sI695
V\u57ab
p696
sI696
V\u57ae
p697
sI697
V\u57c2
p698
sI698
V\u57c3
p699
sI699
V\u57cb
p700
sI700
V\u57ce
p701
sI701
V\u57d4
p702
sI702
V\u57df
p703
sI703
V\u57e0
p704
sI704
V\u57f9
p705
sI705
V\u57fa
p706
sI706
V\u5802
p707
sI707
V\u5806
p708
sI708
V\u5811
p709
sI709
V\u5815
p710
sI710
V\u5821
p711
sI711
V\u5824
p712
sI712
V\u582a
p713
sI713
V\u5830
p714
sI714
V\u5835
p715
sI715
V\u584c
p716
sI716
V\u5851
p717
sI717
V\u5854
p718
sI718
V\u5858
p719
sI719
V\u585e
p720
sI720
V\u586b
p721
sI721
V\u5883
p722
sI722
V\u5885
p723
sI723
V\u5892
p724
sI724
V\u5893
p725
sI725
V\u5899
p726
sI726
V\u589e
p727
sI727
V\u589f
p728
sI728
V\u58a8
p729
sI729
V\u58a9
p730
sI730
V\u58c1
p731
sI731
V\u58d5
p732
sI732
V\u58e4
p733
sI733
V\u58eb
p734
sI734
V\u58ec
p735
sI735
V\u58ee
p736
sI736
V\u58f0
p737
sI737
V\u58f3
p738
sI738
V\u58f6
p739
sI739
V\u58f9
p740
sI740
V\u5904
p741
sI741
V\u5907
p742
sI742
V\u590d
p743
sI743
V\u590f
p744
sI744
V\u5915
p745
sI745
V\u5916
p746
sI746
V\u591a
p747
sI747
V\u591c
p748
sI748
V\u591f
p749
sI749
V\u5927
p750
sI750
V\u5929
p751
sI751
V\u592a
p752
sI752
V\u592b
p753
sI753
V\u592e
p754
sI754
V\u592f
p755
sI755
V\u5931
p756
sI756
V\u5934
p757
sI757
V\u5937
p758
sI758
V\u5938
p759
sI759
V\u5939
p760
sI760
V\u593a
p761
sI761
V\u5944
p762
sI762
V\u5947
p763
sI763
V\u5948
p764
sI764
V\u5949
p765
sI765
V\u594b
p766
sI766
V\u594e
p767
sI767
V\u594f
p768
sI768
V\u5951
p769
sI769
V\u5954
p770
sI770
V\u5956
p771
sI771
V\u5957
p772
sI772
V\u5960
p773
sI773
V\u5962
p774
sI774
V\u5965
p775
sI775
V\u5973
p776
sI776
V\u5974
p777
sI777
V\u5976
p778
sI778
V\u5978
p779
sI779
V\u5979
p780
sI780
V\u597d
p781
sI781
V\u5982
p782
sI782
V\u5984
p783
sI783
V\u5986
p784
sI784
V\u5987
p785
sI785
V\u5988
p786
sI786
V\u598a
p787
sI787
V\u5992
p788
sI788
V\u5993
p789
sI789
V\u5996
p790
sI790
V\u5999
p791
sI791
V\u59a5
p792
sI792
V\u59a8
p793
sI793
V\u59ae
p794
sI794
V\u59b9
p795
sI795
V\u59bb
p796
sI796
V\u59c6
p797
sI797
V\u59cb
p798
sI798
V\u59d0
p799
sI799
V\u59d1
p800
sI800
V\u59d3
p801
sI801
V\u59d4
p802
sI802
V\u59da
p803
sI803
V\u59dc
p804
sI804
V\u59e5
p805
sI805
V\u59e8
p806
sI806
V\u59ec
p807
sI807
V\u59fb
p808
sI808
V\u59ff
p809
sI809
V\u5a01
p810
sI810
V\u5a03
p811
sI811
V\u5a04
p812
sI812
V\u5a07
p813
sI813
V\u5a18
p814
sI814
V\u5a1c
p815
sI815
V\u5a1f
p816
sI816
V\u5a20
p817
sI817
V\u5a25
p818
sI818
V\u5a29
p819
sI819
V\u5a31
p820
sI820
V\u5a36
p821
sI821
V\u5a46
p822
sI822
V\u5a49
p823
sI823
V\u5a5a
p824
sI824
V\u5a6a
p825
sI825
V\u5a74
p826
sI826
V\u5a76
p827
sI827
V\u5a7f
p828
sI828
V\u5a92
p829
sI829
V\u5a9a
p830
sI830
V\u5ab3
p831
sI831
V\u5ac1
p832
sI832
V\u5ac2
p833
sI833
V\u5ac9
p834
sI834
V\u5acc
p835
sI835
V\u5ae1
p836
sI836
V\u5ae9
p837
sI837
V\u5b50
p838
sI838
V\u5b54
p839
sI839
V\u5b55
p840
sI840
V\u5b57
p841
sI841
V\u5b58
p842
sI842
V\u5b59
p843
sI843
V\u5b5c
p844
sI844
V\u5b5d
p845
sI845
V\u5b5f
p846
sI846
V\u5b63
p847
sI847
V\u5b64
p848
sI848
V\u5b66
p849
sI849
V\u5b69
p850
sI850
V\u5b6a
p851
sI851
V\u5b70
p852
sI852
V\u5b75
p853
sI853
V\u5b7a
p854
sI854
V\u5b7d
p855
sI855
V\u5b81
p856
sI856
V\u5b83
p857
sI857
V\u5b85
p858
sI858
V\u5b87
p859
sI859
V\u5b88
p860
sI860
V\u5b89
p861
sI861
V\u5b8b
p862
sI862
V\u5b8c
p863
sI863
V\u5b8f
p864
sI864
V\u5b97
p865
sI865
V\u5b98
p866
sI866
V\u5b99
p867
sI867
V\u5b9a
p868
sI868
V\u5b9b
p869
sI869
V\u5b9c
p870
sI870
V\u5b9d
p871
sI871
V\u5b9e
p872
sI872
V\u5ba0
p873
sI873
V\u5ba1
p874
sI874
V\u5ba2
p875
sI875
V\u5ba3
p876
sI876
V\u5ba4
p877
sI877
V\u5ba6
p878
sI878
V\u5baa
p879
sI879
V\u5bab
p880
sI880
V\u5bb0
p881
sI881
V\u5bb3
p882
sI882
V\u5bb4
p883
sI883
V\u5bb5
p884
sI884
V\u5bb6
p885
sI885
V\u5bb9
p886
sI886
V\u5bbd
p887
sI887
V\u5bbe
p888
sI888
V\u5bbf
p889
sI889
V\u5bc2
p890
sI890
V\u5bc4
p891
sI891
V\u5bc5
p892
sI892
V\u5bc6
p893
sI893
V\u5bc7
p894
sI894
V\u5bcc
p895
sI895
V\u5bd0
p896
sI896
V\u5bd2
p897
sI897
V\u5bd3
p898
sI898
V\u5bdd
p899
sI899
V\u5bde
p900
sI900
V\u5bdf
p901
sI901
V\u5be1
p902
sI902
V\u5be5
p903
sI903
V\u5be8
p904
sI904
V\u5bf8
p905
sI905
V\u5bf9
p906
sI906
V\u5bfa
p907
sI907
V\u5bfb
p908
sI908
V\u5bfc
p909
sI909
V\u5bff
p910
sI910
V\u5c01
p911
sI911
V\u5c04
p912
sI912
V\u5c06
p913
sI913
V\u5c09
p914
sI914
V\u5c0a
p915
sI915
V\u5c0f
p916
sI916
V\u5c11
p917
sI917
V\u5c14
p918
sI918
V\u5c16
p919
sI919
V\u5c18
p920
sI920
V\u5c1a
p921
sI921
V\u5c1d
p922
sI922
V\u5c24
p923
sI923
V\u5c27
p924
sI924
V\u5c31
p925
sI925
V\u5c38
p926
sI926
V\u5c39
p927
sI927
V\u5c3a
p928
sI928
V\u5c3c
p929
sI929
V\u5c3d
p930
sI930
V\u5c3e
p931
sI931
V\u5c3f
p932
sI932
V\u5c40
p933
sI933
V\u5c41
p934
sI934
V\u5c42
p935
sI935
V\u5c45
p936
sI936
V\u5c48
p937
sI937
V\u5c49
p938
sI938
V\u5c4a
p939
sI939
V\u5c4b
p940
sI940
V\u5c4e
p941
sI941
V\u5c4f
p942
sI942
V\u5c51
p943
sI943
V\u5c55
p944
sI944
V\u5c5e
p945
sI945
V\u5c60
p946
sI946
V\u5c61
p947
sI947
V\u5c65
p948
sI948
V\u5c6f
p949
sI949
V\u5c71
p950
sI950
V\u5c79
p951
sI951
V\u5c7f
p952
sI952
V\u5c81
p953
sI953
V\u5c82
p954
sI954
V\u5c94
p955
sI955
V\u5c97
p956
sI956
V\u5c9b
p957
sI957
V\u5ca9
p958
sI958
V\u5cad
p959
sI959
V\u5cb3
p960
sI960
V\u5cb8
p961
sI961
V\u5cbf
p962
sI962
V\u5cd9
p963
sI963
V\u5ce1
p964
sI964
V\u5ce6
p965
sI965
V\u5ce8
p966
sI966
V\u5cea
p967
sI967
V\u5ced
p968
sI968
V\u5cf0
p969
sI969
V\u5cfb
p970
sI970
V\u5d07
p971
sI971
V\u5d0e
p972
sI972
V\u5d14
p973
sI973
V\u5d16
p974
sI974
V\u5d29
p975
sI975
V\u5d2d
p976
sI976
V\u5d4c
p977
sI977
V\u5dcd
p978
sI978
V\u5ddd
p979
sI979
V\u5dde
p980
sI980
V\u5de1
p981
sI981
V\u5de2
p982
sI982
V\u5de5
p983
sI983
V\u5de6
p984
sI984
V\u5de7
p985
sI985
V\u5de8
p986
sI986
V\u5de9
p987
sI987
V\u5deb
p988
sI988
V\u5dee
p989
sI989
V\u5df1
p990
sI990
V\u5df2
p991
sI991
V\u5df3
p992
sI992
V\u5df4
p993
sI993
V\u5df7
p994
sI994
V\u5dfe
p995
sI995
V\u5e01
p996
sI996
V\u5e02
p997
sI997
V\u5e03
p998
sI998
V\u5e05
p999
sI999
V\u5e06
p1000
sI1000
V\u5e08
p1001
sI1001
V\u5e0c
p1002
sI1002
V\u5e10
p1003
sI1003
V\u5e15
p1004
sI1004
V\u5e16
p1005
sI1005
V\u5e18
p1006
sI1006
V\u5e1a
p1007
sI1007
V\u5e1b
p1008
sI1008
V\u5e1c
p1009
sI1009
V\u5e1d
p1010
sI1010
V\u5e26
p1011
sI1011
V\u5e27
p1012
sI1012
V\u5e2d
p1013
sI1013
V\u5e2e
p1014
sI1014
V\u5e38
p1015
sI1015
V\u5e3d
p1016
sI1016
V\u5e42
p1017
sI1017
V\u5e45
p1018
sI1018
V\u5e4c
p1019
sI1019
V\u5e55
p1020
sI1020
V\u5e62
p1021
sI1021
V\u5e72
p1022
sI1022
V\u5e73
p1023
sI1023
V\u5e74
p1024
sI1024
V\u5e76
p1025
sI1025
V\u5e78
p1026
sI1026
V\u5e7b
p1027
sI1027
V\u5e7c
p1028
sI1028
V\u5e7d
p1029
sI1029
V\u5e7f
p1030
sI1030
V\u5e84
p1031
sI1031
V\u5e86
p1032
sI1032
V\u5e87
p1033
sI1033
V\u5e8a
p1034
sI1034
V\u5e8f
p1035
sI1035
V\u5e90
p1036
sI1036
V\u5e93
p1037
sI1037
V\u5e94
p1038
sI1038
V\u5e95
p1039
sI1039
V\u5e97
p1040
sI1040
V\u5e99
p1041
sI1041
V\u5e9a
p1042
sI1042
V\u5e9c
p1043
sI1043
V\u5e9e
p1044
sI1044
V\u5e9f
p1045
sI1045
V\u5ea6
p1046
sI1046
V\u5ea7
p1047
sI1047
V\u5ead
p1048
sI1048
V\u5eb6
p1049
sI1049
V\u5eb7
p1050
sI1050
V\u5eb8
p1051
sI1051
V\u5ec9
p1052
sI1052
V\u5eca
p1053
sI1053
V\u5ed3
p1054
sI1054
V\u5ed6
p1055
sI1055
V\u5ef6
p1056
sI1056
V\u5ef7
p1057
sI1057
V\u5efa
p1058
sI1058
V\u5f00
p1059
sI1059
V\u5f02
p1060
sI1060
V\u5f03
p1061
sI1061
V\u5f04
p1062
sI1062
V\u5f0a
p1063
sI1063
V\u5f0f
p1064
sI1064
V\u5f13
p1065
sI1065
V\u5f15
p1066
sI1066
V\u5f17
p1067
sI1067
V\u5f18
p1068
sI1068
V\u5f1b
p1069
sI1069
V\u5f1f
p1070
sI1070
V\u5f20
p1071
sI1071
V\u5f25
p1072
sI1072
V\u5f26
p1073
sI1073
V\u5f27
p1074
sI1074
V\u5f2f
p1075
sI1075
V\u5f31
p1076
sI1076
V\u5f39
p1077
sI1077
V\u5f3a
p1078
sI1078
V\u5f52
p1079
sI1079
V\u5f53
p1080
sI1080
V\u5f55
p1081
sI1081
V\u5f5d
p1082
sI1082
V\u5f62
p1083
sI1083
V\u5f64
p1084
sI1084
V\u5f66
p1085
sI1085
V\u5f69
p1086
sI1086
V\u5f6a
p1087
sI1087
V\u5f6c
p1088
sI1088
V\u5f6d
p1089
sI1089
V\u5f70
p1090
sI1090
V\u5f71
p1091
sI1091
V\u5f79
p1092
sI1092
V\u5f7b
p1093
sI1093
V\u5f7c
p1094
sI1094
V\u5f80
p1095
sI1095
V\u5f81
p1096
sI1096
V\u5f84
p1097
sI1097
V\u5f85
p1098
sI1098
V\u5f88
p1099
sI1099
V\u5f8a
p1100
sI1100
V\u5f8b
p1101
sI1101
V\u5f90
p1102
sI1102
V\u5f92
p1103
sI1103
V\u5f97
p1104
sI1104
V\u5f98
p1105
sI1105
V\u5fa1
p1106
sI1106
V\u5faa
p1107
sI1107
V\u5fae
p1108
sI1108
V\u5fb7
p1109
sI1109
V\u5fbd
p1110
sI1110
V\u5fc3
p1111
sI1111
V\u5fc5
p1112
sI1112
V\u5fc6
p1113
sI1113
V\u5fcc
p1114
sI1114
V\u5fcd
p1115
sI1115
V\u5fd7
p1116
sI1116
V\u5fd8
p1117
sI1117
V\u5fd9
p1118
sI1118
V\u5fe0
p1119
sI1119
V\u5fe7
p1120
sI1120
V\u5feb
p1121
sI1121
V\u5ff1
p1122
sI1122
V\u5ff5
p1123
sI1123
V\u5ffb
p1124
sI1124
V\u5ffd
p1125
sI1125
V\u5fff
p1126
sI1126
V\u6000
p1127
sI1127
V\u6001
p1128
sI1128
V\u6002
p1129
sI1129
V\u600e
p1130
sI1130
V\u6012
p1131
sI1131
V\u6014
p1132
sI1132
V\u6015
p1133
sI1133
V\u6016
p1134
sI1134
V\u601c
p1135
sI1135
V\u601d
p1136
sI1136
V\u6020
p1137
sI1137
V\u6025
p1138
sI1138
V\u6027
p1139
sI1139
V\u6028
p1140
sI1140
V\u602a
p1141
sI1141
V\u602f
p1142
sI1142
V\u603b
p1143
sI1143
V\u6043
p1144
sI1144
V\u604b
p1145
sI1145
V\u604d
p1146
sI1146
V\u6050
p1147
sI1147
V\u6052
p1148
sI1148
V\u6055
p1149
sI1149
V\u6062
p1150
sI1150
V\u6064
p1151
sI1151
V\u6068
p1152
sI1152
V\u6069
p1153
sI1153
V\u606b
p1154
sI1154
V\u606c
p1155
sI1155
V\u606d
p1156
sI1156
V\u606f
p1157
sI1157
V\u6070
p1158
sI1158
V\u6073
p1159
sI1159
V\u6076
p1160
sI1160
V\u607c
p1161
sI1161
V\u607f
p1162
sI1162
V\u6084
p1163
sI1163
V\u6089
p1164
sI1164
V\u608d
p1165
sI1165
V\u6094
p1166
sI1166
V\u609f
p1167
sI1167
V\u60a0
p1168
sI1168
V\u60a3
p1169
sI1169
V\u60a6
p1170
sI1170
V\u60a8
p1171
sI1171
V\u60ac
p1172
sI1172
V\u60af
p1173
sI1173
V\u60b2
p1174
sI1174
V\u60b8
p1175
sI1175
V\u60bc
p1176
sI1176
V\u60c5
p1177
sI1177
V\u60ca
p1178
sI1178
V\u60cb
p1179
sI1179
V\u60d1
p1180
sI1180
V\u60d5
p1181
sI1181
V\u60dc
p1182
sI1182
V\u60df
p1183
sI1183
V\u60e0
p1184
sI1184
V\u60e6
p1185
sI1185
V\u60e7
p1186
sI1186
V\u60e8
p1187
sI1187
V\u60e9
p1188
sI1188
V\u60eb
p1189
sI1189
V\u60ed
p1190
sI1190
V\u60ee
p1191
sI1191
V\u60ef
p1192
sI1192
V\u60f0
p1193
sI1193
V\u60f3
p1194
sI1194
V\u60f6
p1195
sI1195
V\u60f9
p1196
sI1196
V\u60fa
p1197
sI1197
V\u6101
p1198
sI1198
V\u6108
p1199
sI1199
V\u6109
p1200
sI1200
V\u610f
p1201
sI1201
V\u611a
p1202
sI1202
V\u611f
p1203
sI1203
V\u6124
p1204
sI1204
V\u6127
p1205
sI1205
V\u613f
p1206
sI1206
V\u6148
p1207
sI1207
V\u614c
p1208
sI1208
V\u614e
p1209
sI1209
V\u6151
p1210
sI1210
V\u6155
p1211
sI1211
V\u6162
p1212
sI1212
V\u6167
p1213
sI1213
V\u6168
p1214
sI1214
V\u6170
p1215
sI1215
V\u6177
p1216
sI1216
V\u618b
p1217
sI1217
V\u618e
p1218
sI1218
V\u61a8
p1219
sI1219
V\u61be
p1220
sI1220
V\u61c2
p1221
sI1221
V\u61c8
p1222
sI1222
V\u61ca
p1223
sI1223
V\u61d2
p1224
sI1224
V\u61e6
p1225
sI1225
V\u6208
p1226
sI1226
V\u620a
p1227
sI1227
V\u620c
p1228
sI1228
V\u620d
p1229
sI1229
V\u620e
p1230
sI1230
V\u620f
p1231
sI1231
V\u6210
p1232
sI1232
V\u6211
p1233
sI1233
V\u6212
p1234
sI1234
V\u6216
p1235
sI1235
V\u6218
p1236
sI1236
V\u621a
p1237
sI1237
V\u622a
p1238
sI1238
V\u622e
p1239
sI1239
V\u6233
p1240
sI1240
V\u6234
p1241
sI1241
V\u6237
p1242
sI1242
V\u623f
p1243
sI1243
V\u6240
p1244
sI1244
V\u6241
p1245
sI1245
V\u6247
p1246
sI1246
V\u624b
p1247
sI1247
V\u624d
p1248
sI1248
V\u624e
p1249
sI1249
V\u6251
p1250
sI1250
V\u6252
p1251
sI1251
V\u6253
p1252
sI1252
V\u6254
p1253
sI1253
V\u6258
p1254
sI1254
V\u625b
p1255
sI1255
V\u6263
p1256
sI1256
V\u6266
p1257
sI1257
V\u6267
p1258
sI1258
V\u6269
p1259
sI1259
V\u626b
p1260
sI1260
V\u626c
p1261
sI1261
V\u626d
p1262
sI1262
V\u626e
p1263
sI1263
V\u626f
p1264
sI1264
V\u6270
p1265
sI1265
V\u6273
p1266
sI1266
V\u6276
p1267
sI1267
V\u6279
p1268
sI1268
V\u627c
p1269
sI1269
V\u627e
p1270
sI1270
V\u627f
p1271
sI1271
V\u6280
p1272
sI1272
V\u6284
p1273
sI1273
V\u6289
p1274
sI1274
V\u628a
p1275
sI1275
V\u6291
p1276
sI1276
V\u6292
p1277
sI1277
V\u6293
p1278
sI1278
V\u6295
p1279
sI1279
V\u6296
p1280
sI1280
V\u6297
p1281
sI1281
V\u6298
p1282
sI1282
V\u629a
p1283
sI1283
V\u629b
p1284
sI1284
V\u62a0
p1285
sI1285
V\u62a1
p1286
sI1286
V\u62a2
p1287
sI1287
V\u62a4
p1288
sI1288
V\u62a5
p1289
sI1289
V\u62a8
p1290
sI1290
V\u62ab
p1291
sI1291
V\u62ac
p1292
sI1292
V\u62b1
p1293
sI1293
V\u62b5
p1294
sI1294
V\u62b9
p1295
sI1295
V\u62bc
p1296
sI1296
V\u62bd
p1297
sI1297
V\u62bf
p1298
sI1298
V\u62c2
p1299
sI1299
V\u62c4
p1300
sI1300
V\u62c5
p1301
sI1301
V\u62c6
p1302
sI1302
V\u62c7
p1303
sI1303
V\u62c8
p1304
sI1304
V\u62c9
p1305
sI1305
V\u62cc
p1306
sI1306
V\u62cd
p1307
sI1307
V\u62ce
p1308
sI1308
V\u62d0
p1309
sI1309
V\u62d2
p1310
sI1310
V\u62d3
p1311
sI1311
V\u62d4
p1312
sI1312
V\u62d6
p1313
sI1313
V\u62d8
p1314
sI1314
V\u62d9
p1315
sI1315
V\u62db
p1316
sI1316
V\u62dc
p1317
sI1317
V\u62df
p1318
sI1318
V\u62e2
p1319
sI1319
V\u62e3
p1320
sI1320
V\u62e5
p1321
sI1321
V\u62e6
p1322
sI1322
V\u62e7
p1323
sI1323
V\u62e8
p1324
sI1324
V\u62e9
p1325
sI1325
V\u62ec
p1326
sI1326
V\u62ed
p1327
sI1327
V\u62ef
p1328
sI1328
V\u62f1
p1329
sI1329
V\u62f3
p1330
sI1330
V\u62f4
p1331
sI1331
V\u62f7
p1332
sI1332
V\u62fc
p1333
sI1333
V\u62fd
p1334
sI1334
V\u62fe
p1335
sI1335
V\u62ff
p1336
sI1336
V\u6301
p1337
sI1337
V\u6302
p1338
sI1338
V\u6307
p1339
sI1339
V\u6309
p1340
sI1340
V\u630e
p1341
sI1341
V\u6311
p1342
sI1342
V\u6316
p1343
sI1343
V\u631a
p1344
sI1344
V\u631b
p1345
sI1345
V\u631d
p1346
sI1346
V\u631e
p1347
sI1347
V\u631f
p1348
sI1348
V\u6320
p1349
sI1349
V\u6321
p1350
sI1350
V\u6323
p1351
sI1351
V\u6324
p1352
sI1352
V\u6325
p1353
sI1353
V\u6328
p1354
sI1354
V\u632a
p1355
sI1355
V\u632b
p1356
sI1356
V\u632f
p1357
sI1357
V\u633a
p1358
sI1358
V\u633d
p1359
sI1359
V\u6342
p1360
sI1360
V\u6345
p1361
sI1361
V\u6346
p1362
sI1362
V\u6349
p1363
sI1363
V\u634c
p1364
sI1364
V\u634d
p1365
sI1365
V\u634e
p1366
sI1366
V\u634f
p1367
sI1367
V\u6350
p1368
sI1368
V\u6355
p1369
sI1369
V\u635e
p1370
sI1370
V\u635f
p1371
sI1371
V\u6361
p1372
sI1372
V\u6362
p1373
sI1373
V\u6363
p1374
sI1374
V\u6367
p1375
sI1375
V\u636e
p1376
sI1376
V\u6376
p1377
sI1377
V\u6377
p1378
sI1378
V\u637b
p1379
sI1379
V\u6380
p1380
sI1380
V\u6382
p1381
sI1381
V\u6387
p1382
sI1382
V\u6388
p1383
sI1383
V\u6389
p1384
sI1384
V\u638c
p1385
sI1385
V\u638f
p1386
sI1386
V\u6390
p1387
sI1387
V\u6392
p1388
sI1388
V\u6396
p1389
sI1389
V\u6398
p1390
sI1390
V\u63a0
p1391
sI1391
V\u63a2
p1392
sI1392
V\u63a3
p1393
sI1393
V\u63a5
p1394
sI1394
V\u63a7
p1395
sI1395
V\u63a8
p1396
sI1396
V\u63a9
p1397
sI1397
V\u63aa
p1398
sI1398
V\u63b3
p1399
sI1399
V\u63b7
p1400
sI1400
V\u63b8
p1401
sI1401
V\u63ba
p1402
sI1402
V\u63c9
p1403
sI1403
V\u63cd
p1404
sI1404
V\u63cf
p1405
sI1405
V\u63d0
p1406
sI1406
V\u63d2
p1407
sI1407
V\u63d6
p1408
sI1408
V\u63e1
p1409
sI1409
V\u63e3
p1410
sI1410
V\u63e9
p1411
sI1411
V\u63ea
p1412
sI1412
V\u63ed
p1413
sI1413
V\u63f4
p1414
sI1414
V\u63fd
p1415
sI1415
V\u6400
p1416
sI1416
V\u6401
p1417
sI1417
V\u6402
p1418
sI1418
V\u6405
p1419
sI1419
V\u640f
p1420
sI1420
V\u6410
p1421
sI1421
V\u6413
p1422
sI1422
V\u6414
p1423
sI1423
V\u641c
p1424
sI1424
V\u641e
p1425
sI1425
V\u642a
p1426
sI1426
V\u642c
p1427
sI1427
V\u642d
p1428
sI1428
V\u643a
p1429
sI1429
V\u643d
p1430
sI1430
V\u6444
p1431
sI1431
V\u6446
p1432
sI1432
V\u6447
p1433
sI1433
V\u6448
p1434
sI1434
V\u644a
p1435
sI1435
V\u6454
p1436
sI1436
V\u6458
p1437
sI1437
V\u6467
p1438
sI1438
V\u6469
p1439
sI1439
V\u6478
p1440
sI1440
V\u6479
p1441
sI1441
V\u6482
p1442
sI1442
V\u6485
p1443
sI1443
V\u6487
p1444
sI1444
V\u6491
p1445
sI1445
V\u6492
p1446
sI1446
V\u6495
p1447
sI1447
V\u649e
p1448
sI1448
V\u64a4
p1449
sI1449
V\u64a9
p1450
sI1450
V\u64ac
p1451
sI1451
V\u64ad
p1452
sI1452
V\u64ae
p1453
sI1453
V\u64b0
p1454
sI1454
V\u64b5
p1455
sI1455
V\u64bc
p1456
sI1456
V\u64c2
p1457
sI1457
V\u64c5
p1458
sI1458
V\u64cd
p1459
sI1459
V\u64ce
p1460
sI1460
V\u64d2
p1461
sI1461
V\u64de
p1462
sI1462
V\u64e6
p1463
sI1463
V\u6500
p1464
sI1464
V\u6512
p1465
sI1465
V\u6518
p1466
sI1466
V\u652b
p1467
sI1467
V\u652f
p1468
sI1468
V\u6536
p1469
sI1469
V\u6539
p1470
sI1470
V\u653b
p1471
sI1471
V\u653e
p1472
sI1472
V\u653f
p1473
sI1473
V\u6545
p1474
sI1474
V\u6548
p1475
sI1475
V\u654c
p1476
sI1476
V\u654f
p1477
sI1477
V\u6551
p1478
sI1478
V\u6556
p1479
sI1479
V\u6559
p1480
sI1480
V\u655b
p1481
sI1481
V\u655d
p1482
sI1482
V\u655e
p1483
sI1483
V\u6562
p1484
sI1484
V\u6563
p1485
sI1485
V\u6566
p1486
sI1486
V\u656c
p1487
sI1487
V\u6570
p1488
sI1488
V\u6572
p1489
sI1489
V\u6574
p1490
sI1490
V\u6577
p1491
sI1491
V\u6587
p1492
sI1492
V\u658b
p1493
sI1493
V\u658c
p1494
sI1494
V\u6591
s.